Certificate:
    Data:
        Version: 3 (0x2)
        Serial Number: 0 (0x0)
        Signature Algorithm: sha256WithRSAEncryption
        Issuer: C=US, ST=go-cert region, L=go-cert city, O=go-cert, OU=go-cert CA department, CN=go-cert.localhost/emailAddress=root_email@go-cert.localhost
        Validity
            Not Before: May 16 12:28:38 2024 GMT
            Not After : May 16 12:28:38 2025 GMT
        Subject: C=US, ST=go-cert region, O=go-cert cert place, OU=go-cert cert department, CN=go-cert.localhost
        Subject Public Key Info:
            Public Key Algorithm: rsaEncryption
                Public-Key: (4096 bit)
                Modulus:
                    00:b3:8b:af:9d:5a:cc:62:62:69:63:11:61:75:47:
                    a0:56:76:77:87:60:62:72:c5:e8:47:7a:66:20:d2:
                    7c:39:ec:5e:39:f4:a6:92:52:cb:a7:36:e5:f9:20:
                    95:fc:91:a4:e9:19:c6:cc:62:54:6a:98:4a:d3:58:
                    e8:25:36:71:33:d4:2d:cf:0f:79:19:c7:ee:80:c6:
                    02:ad:ae:8e:54:c3:06:00:c7:97:24:3d:88:dc:c6:
                    39:06:57:79:f3:03:c2:03:b1:36:5c:e3:e0:75:0b:
                    03:e9:89:fa:34:30:20:b1:60:e5:4a:d8:a0:76:0f:
                    2d:43:7a:0d:07:bf:e5:92:1a:b5:e3:6a:e3:40:47:
                    5a:8d:ee:e3:f5:be:82:37:b4:d9:7c:7c:1a:30:80:
                    87:4d:90:11:78:8c:3c:55:5b:9c:05:b3:90:d4:ea:
                    93:b4:dd:75:09:d8:84:59:bf:65:c9:d9:51:0a:47:
                    6f:f5:b2:9c:9c:84:b9:42:5f:b0:f6:8c:c4:55:65:
                    53:d1:8b:45:37:b4:92:71:7a:0d:dc:54:d8:e1:c2:
                    58:63:8e:03:a7:ed:c8:d8:8d:b1:c0:cc:98:80:2f:
                    5a:d8:76:e1:29:9b:16:43:0f:b7:12:83:0e:33:11:
                    9a:ab:ee:5b:6b:fd:91:99:d6:cc:69:e2:3b:ae:bf:
                    c6:66:cd:c5:6a:3c:1a:a6:c0:af:80:a6:4c:fd:00:
                    4f:aa:5a:02:34:2d:73:8a:3d:8d:22:9d:9b:98:d9:
                    eb:ea:c7:d4:94:70:35:ea:da:ff:81:20:b5:b5:3f:
                    da:98:06:af:f6:e6:b8:a0:a3:0c:6d:c5:8d:1a:19:
                    bc:ad:4f:6e:06:c9:13:eb:6c:d5:40:ab:53:22:14:
                    96:72:02:32:eb:a5:0a:fa:40:8a:00:34:3e:3f:6d:
                    7d:71:ba:ec:d9:98:87:b6:ed:1f:04:d1:35:56:4b:
                    d2:f1:85:dd:59:ef:f0:fd:1b:6b:e4:d8:a6:fa:d1:
                    bd:1c:fd:c4:c2:c8:19:c8:dd:3d:19:30:50:02:87:
                    3e:5a:53:4a:11:41:7f:59:8a:1c:00:27:ca:f1:4a:
                    3c:a1:a1:9b:b3:c4:6e:23:cb:20:19:bc:b9:c2:29:
                    19:ab:64:aa:7b:0c:0d:57:b6:2e:61:0f:66:f6:f8:
                    ea:45:fe:86:f3:7a:67:dc:31:e0:8d:de:9b:26:9e:
                    77:b9:6a:6e:89:4e:12:08:bb:e8:74:1b:85:d7:cd:
                    a1:df:28:ab:27:83:48:d2:02:a6:46:d4:eb:b7:7c:
                    c6:6b:22:c1:a5:3c:99:41:9c:8f:ad:6c:18:80:5a:
                    ef:1b:4c:53:72:ee:b1:b9:0e:ad:ab:d7:5b:1c:ef:
                    04:f8:fb
                Exponent: 65537 (0x10001)
        X509v3 extensions:
            X509v3 Key Usage: 
                Digital Signature
            X509v3 Basic Constraints: 
                CA:FALSE
            X509v3 Subject Alternative Name: 
                DNS:go-cert.localhost, DNS:www.go-cert.localhost, DNS:*.go-cert.localhost
            X509v3 Subject Key Identifier: 
                BA:FB:FA:E3:FA:26:97:5D:7B:08:15:F5:81:91:11:5E:AA:79:8B:0D
            X509v3 Authority Key Identifier: 
                DirName:/C=US/ST=go-cert region/L=go-cert city/O=go-cert/OU=go-cert CA department/CN=go-cert.localhost/emailAddress=root_email@go-cert.localhost
                serial:5A:E5:98:F7:7A:76:35:9B:C4:0F:7B:85:98:68:7F:46:44:F5:B8:7E
    Signature Algorithm: sha256WithRSAEncryption
    Signature Value:
        c3:a4:df:80:59:cb:27:73:82:d3:55:cb:9f:64:82:52:de:85:
        ac:94:2b:a0:65:c1:e2:25:89:5d:1e:da:40:60:19:e5:ef:d8:
        62:c7:7f:c8:e5:d1:c2:26:88:92:e6:3d:7f:9b:ec:1e:13:7d:
        35:76:5f:79:02:21:c8:fc:3f:3b:3f:b3:9c:48:0b:67:fe:9e:
        a1:8c:95:ea:d0:32:4f:39:b7:52:eb:5d:7b:47:cb:b9:b9:23:
        08:b0:79:77:70:29:c5:8f:9f:70:e2:40:cd:a6:ff:92:a7:cc:
        19:ef:01:20:94:8f:2e:8f:f0:c0:3e:5c:e2:d1:d7:98:a8:66:
        8e:1a:ca:21:fc:7d:5f:87:f2:62:4c:57:6e:e0:b4:44:2d:87:
        4c:43:08:9a:78:66:6a:42:13:99:2a:15:f9:47:5b:cc:13:64:
        b4:50:da:49:8e:e8:3f:19:ae:59:37:78:24:cb:cc:00:f1:1c:
        fa:eb:b0:ea:8e:ca:71:c5:85:73:f4:9a:58:31:d6:da:a1:14:
        56:12:46:65:0c:e6:5c:63:f3:76:84:37:50:2a:27:1b:30:8e:
        47:68:af:0b:70:41:df:13:0a:92:a4:1b:bc:8b:6c:b5:b8:21:
        ef:26:29:83:5d:68:ef:05:ce:1f:1e:a6:f3:a3:0f:61:9e:f4:
        38:72:97:97:1b:b0:13:c7:7e:8e:17:43:e3:ee:18:21:0e:bf:
        68:47:67:40:38:70:30:02:5e:2a:48:2a:b3:62:a5:1e:d6:16:
        01:ed:5e:50:d6:ed:39:78:09:d3:4c:d4:49:33:4f:2e:aa:14:
        32:0e:27:9b:3a:0f:eb:23:15:ce:bb:cf:d6:75:c5:c2:bc:e8:
        da:09:64:b3:53:be:8c:71:a9:1c:77:18:6f:e0:a9:8a:d5:85:
        22:62:1a:09:93:85:a4:b2:3d:4b:d4:3a:8d:9f:b5:2a:fc:49:
        cf:3c:bc:47:80:a2:aa:9a:c2:30:78:e9:66:95:a0:27:1d:43:
        54:9a:d1:c0:6c:c6:bd:7b:3c:98:f2:aa:5b:a3:f0:94:64:65:
        29:7d:61:47:71:c7:ed:a3:f1:e0:eb:cf:e2:d3:73:07:fa:a3:
        4c:23:41:f3:3c:76:09:8c:29:58:11:75:6a:b8:35:c4:81:48:
        74:8d:84:77:23:d7:78:c2:c3:84:a9:54:a6:c6:ab:56:2d:4d:
        e4:9a:45:9c:88:78:75:54:95:cb:4c:c3:61:cf:3d:92:d3:af:
        98:b9:96:27:95:95:96:cf:5b:5e:c9:e3:02:46:a2:ae:29:d9:
        6a:b7:86:57:fd:4c:8a:3e:e5:d1:b1:f9:a4:a8:72:02:f2:1e:
        d2:9a:18:a7:c8:51:b6:1b
-----BEGIN CERTIFICATE-----
MIIHIjCCBQqgAwIBAgIBADANBgkqhkiG9w0BAQsFADCBuDELMAkGA1UEBhMCVVMx
FzAVBgNVBAgMDmdvLWNlcnQgcmVnaW9uMRUwEwYDVQQHDAxnby1jZXJ0IGNpdHkx
EDAOBgNVBAoMB2dvLWNlcnQxHjAcBgNVBAsMFWdvLWNlcnQgQ0EgZGVwYXJ0bWVu
dDEaMBgGA1UEAwwRZ28tY2VydC5sb2NhbGhvc3QxKzApBgkqhkiG9w0BCQEWHHJv
b3RfZW1haWxAZ28tY2VydC5sb2NhbGhvc3QwHhcNMjQwNTE2MTIyODM4WhcNMjUw
NTE2MTIyODM4WjCBgTELMAkGA1UEBhMCVVMxFzAVBgNVBAgMDmdvLWNlcnQgcmVn
aW9uMRswGQYDVQQKDBJnby1jZXJ0IGNlcnQgcGxhY2UxIDAeBgNVBAsMF2dvLWNl
cnQgY2VydCBkZXBhcnRtZW50MRowGAYDVQQDDBFnby1jZXJ0LmxvY2FsaG9zdDCC
AiIwDQYJKoZIhvcNAQEBBQADggIPADCCAgoCggIBALOLr51azGJiaWMRYXVHoFZ2
d4dgYnLF6Ed6ZiDSfDnsXjn0ppJSy6c25fkglfyRpOkZxsxiVGqYStNY6CU2cTPU
Lc8PeRnH7oDGAq2ujlTDBgDHlyQ9iNzGOQZXefMDwgOxNlzj4HULA+mJ+jQwILFg
5UrYoHYPLUN6DQe/5ZIateNq40BHWo3u4/W+gje02Xx8GjCAh02QEXiMPFVbnAWz
kNTqk7TddQnYhFm/ZcnZUQpHb/WynJyEuUJfsPaMxFVlU9GLRTe0knF6DdxU2OHC
WGOOA6ftyNiNscDMmIAvWth24SmbFkMPtxKDDjMRmqvuW2v9kZnWzGniO66/xmbN
xWo8GqbAr4CmTP0AT6paAjQtc4o9jSKdm5jZ6+rH1JRwNera/4EgtbU/2pgGr/bm
uKCjDG3FjRoZvK1PbgbJE+ts1UCrUyIUlnICMuulCvpAigA0Pj9tfXG67NmYh7bt
HwTRNVZL0vGF3Vnv8P0ba+TYpvrRvRz9xMLIGcjdPRkwUAKHPlpTShFBf1mKHAAn
yvFKPKGhm7PEbiPLIBm8ucIpGatkqnsMDVe2LmEPZvb46kX+hvN6Z9wx4I3emyae
d7lqbolOEgi76HQbhdfNod8oqyeDSNICpkbU67d8xmsiwaU8mUGcj61sGIBa7xtM
U3LusbkOravXWxzvBPj7AgMBAAGjggFqMIIBZjALBgNVHQ8EBAMCB4AwCQYDVR0T
BAIwADBIBgNVHREEQTA/ghFnby1jZXJ0LmxvY2FsaG9zdIIVd3d3LmdvLWNlcnQu
bG9jYWxob3N0ghMqLmdvLWNlcnQubG9jYWxob3N0MB0GA1UdDgQWBBS6+/rj+iaX
XXsIFfWBkRFeqnmLDTCB4gYDVR0jBIHaMIHXoYG+pIG7MIG4MQswCQYDVQQGEwJV
UzEXMBUGA1UECAwOZ28tY2VydCByZWdpb24xFTATBgNVBAcMDGdvLWNlcnQgY2l0
eTEQMA4GA1UECgwHZ28tY2VydDEeMBwGA1UECwwVZ28tY2VydCBDQSBkZXBhcnRt
ZW50MRowGAYDVQQDDBFnby1jZXJ0LmxvY2FsaG9zdDErMCkGCSqGSIb3DQEJARYc
cm9vdF9lbWFpbEBnby1jZXJ0LmxvY2FsaG9zdIIUWuWY93p2NZvED3uFmGh/RkT1
uH4wDQYJKoZIhvcNAQELBQADggIBAMOk34BZyydzgtNVy59kglLehayUK6BlweIl
iV0e2kBgGeXv2GLHf8jl0cImiJLmPX+b7B4TfTV2X3kCIcj8Pzs/s5xIC2f+nqGM
lerQMk85t1LrXXtHy7m5IwiweXdwKcWPn3DiQM2m/5KnzBnvASCUjy6P8MA+XOLR
15ioZo4ayiH8fV+H8mJMV27gtEQth0xDCJp4ZmpCE5kqFflHW8wTZLRQ2kmO6D8Z
rlk3eCTLzADxHPrrsOqOynHFhXP0mlgx1tqhFFYSRmUM5lxj83aEN1AqJxswjkdo
rwtwQd8TCpKkG7yLbLW4Ie8mKYNdaO8Fzh8epvOjD2Ge9Dhyl5cbsBPHfo4XQ+Pu
GCEOv2hHZ0A4cDACXipIKrNipR7WFgHtXlDW7Tl4CdNM1EkzTy6qFDIOJ5s6D+sj
Fc67z9Z1xcK86NoJZLNTvoxxqRx3GG/gqYrVhSJiGgmThaSyPUvUOo2ftSr8Sc88
vEeAoqqawjB46WaVoCcdQ1Sa0cBsxr17PJjyqluj8JRkZSl9YUdxx+2j8eDrz+LT
cwf6o0wjQfM8dgmMKVgRdWq4NcSBSHSNhHcj13jCw4SpVKbGq1YtTeSaRZyIeHVU
lctMw2HPPZLTr5i5lieVlZbPW17J4wJGoq4p2Wq3hlf9TIo+5dGx+aSocgLyHtKa
GKfIUbYb
-----END CERTIFICATE-----
