Certificate:
    Data:
        Version: 3 (0x2)
        Serial Number: 1 (0x1)
        Signature Algorithm: sha256WithRSAEncryption
        Issuer: C=US, ST=go-cert region, L=go-cert city, O=go-cert, OU=go-cert CA department, CN=go-cert.localhost/emailAddress=root_email@go-cert.localhost
        Validity
            Not Before: Jan  1 00:00:00 2000 GMT
            Not After : Feb  1 00:00:00 2000 GMT
        Subject: C=US, ST=go-cert region, O=go-cert cert place, OU=go-cert cert department, CN=go-cert.localhost
        Subject Public Key Info:
            Public Key Algorithm: rsaEncryption
                Public-Key: (4096 bit)
                Modulus:
                    00:b3:8b:af:9d:5a:cc:62:62:69:63:11:61:75:47:
                    a0:56:76:77:87:60:62:72:c5:e8:47:7a:66:20:d2:
                    7c:39:ec:5e:39:f4:a6:92:52:cb:a7:36:e5:f9:20:
                    95:fc:91:a4:e9:19:c6:cc:62:54:6a:98:4a:d3:58:
                    e8:25:36:71:33:d4:2d:cf:0f:79:19:c7:ee:80:c6:
                    02:ad:ae:8e:54:c3:06:00:c7:97:24:3d:88:dc:c6:
                    39:06:57:79:f3:03:c2:03:b1:36:5c:e3:e0:75:0b:
                    03:e9:89:fa:34:30:20:b1:60:e5:4a:d8:a0:76:0f:
                    2d:43:7a:0d:07:bf:e5:92:1a:b5:e3:6a:e3:40:47:
                    5a:8d:ee:e3:f5:be:82:37:b4:d9:7c:7c:1a:30:80:
                    87:4d:90:11:78:8c:3c:55:5b:9c:05:b3:90:d4:ea:
                    93:b4:dd:75:09:d8:84:59:bf:65:c9:d9:51:0a:47:
                    6f:f5:b2:9c:9c:84:b9:42:5f:b0:f6:8c:c4:55:65:
                    53:d1:8b:45:37:b4:92:71:7a:0d:dc:54:d8:e1:c2:
                    58:63:8e:03:a7:ed:c8:d8:8d:b1:c0:cc:98:80:2f:
                    5a:d8:76:e1:29:9b:16:43:0f:b7:12:83:0e:33:11:
                    9a:ab:ee:5b:6b:fd:91:99:d6:cc:69:e2:3b:ae:bf:
                    c6:66:cd:c5:6a:3c:1a:a6:c0:af:80:a6:4c:fd:00:
                    4f:aa:5a:02:34:2d:73:8a:3d:8d:22:9d:9b:98:d9:
                    eb:ea:c7:d4:94:70:35:ea:da:ff:81:20:b5:b5:3f:
                    da:98:06:af:f6:e6:b8:a0:a3:0c:6d:c5:8d:1a:19:
                    bc:ad:4f:6e:06:c9:13:eb:6c:d5:40:ab:53:22:14:
                    96:72:02:32:eb:a5:0a:fa:40:8a:00:34:3e:3f:6d:
                    7d:71:ba:ec:d9:98:87:b6:ed:1f:04:d1:35:56:4b:
                    d2:f1:85:dd:59:ef:f0:fd:1b:6b:e4:d8:a6:fa:d1:
                    bd:1c:fd:c4:c2:c8:19:c8:dd:3d:19:30:50:02:87:
                    3e:5a:53:4a:11:41:7f:59:8a:1c:00:27:ca:f1:4a:
                    3c:a1:a1:9b:b3:c4:6e:23:cb:20:19:bc:b9:c2:29:
                    19:ab:64:aa:7b:0c:0d:57:b6:2e:61:0f:66:f6:f8:
                    ea:45:fe:86:f3:7a:67:dc:31:e0:8d:de:9b:26:9e:
                    77:b9:6a:6e:89:4e:12:08:bb:e8:74:1b:85:d7:cd:
                    a1:df:28:ab:27:83:48:d2:02:a6:46:d4:eb:b7:7c:
                    c6:6b:22:c1:a5:3c:99:41:9c:8f:ad:6c:18:80:5a:
                    ef:1b:4c:53:72:ee:b1:b9:0e:ad:ab:d7:5b:1c:ef:
                    04:f8:fb
                Exponent: 65537 (0x10001)
        X509v3 extensions:
            X509v3 Key Usage: 
                Digital Signature
            X509v3 Basic Constraints: 
                CA:FALSE
            X509v3 Subject Alternative Name: 
                DNS:go-cert.localhost, DNS:www.go-cert.localhost, DNS:*.go-cert.localhost
            X509v3 Subject Key Identifier: 
                BA:FB:FA:E3:FA:26:97:5D:7B:08:15:F5:81:91:11:5E:AA:79:8B:0D
            X509v3 Authority Key Identifier: 
                DirName:/C=US/ST=go-cert region/L=go-cert city/O=go-cert/OU=go-cert CA department/CN=go-cert.localhost/emailAddress=root_email@go-cert.localhost
                serial:5A:E5:98:F7:7A:76:35:9B:C4:0F:7B:85:98:68:7F:46:44:F5:B8:7E
    Signature Algorithm: sha256WithRSAEncryption
    Signature Value:
        0c:2d:c0:54:d1:be:b7:d9:90:61:f7:f0:57:2f:f5:d1:61:51:
        8b:e3:9f:2c:d6:d2:5c:dd:f2:2d:21:7d:f8:35:cb:86:9a:6e:
        e7:91:1c:50:2e:0b:2b:fb:69:fe:82:d9:f9:2a:06:6d:cd:80:
        7c:0d:6d:ca:c9:98:bf:0a:04:2d:89:d0:9d:78:b2:4f:3f:95:
        b0:f8:8a:fb:4a:80:3b:31:1b:13:27:08:9e:d7:41:b1:f2:25:
        c0:77:ab:34:ff:e3:69:75:9a:55:fb:d0:37:a5:20:72:f3:a6:
        19:70:a6:7d:20:04:f4:07:3f:c6:be:1a:a1:d9:d8:d0:5a:ea:
        ca:75:90:49:db:61:d5:4a:0d:9d:18:63:7e:3a:91:5f:e1:4d:
        bc:04:c2:06:40:dc:7e:58:52:1e:f8:93:87:07:65:db:59:66:
        51:86:a3:08:23:1b:44:4f:9b:cc:c9:8b:2b:e1:1d:a0:b2:a6:
        d7:dc:3d:31:98:b9:ac:9a:71:58:f5:9b:db:13:4e:be:86:c5:
        0a:99:81:e6:98:9f:14:e6:0f:f7:f9:2d:fd:88:c7:a0:ed:8e:
        1a:5b:a2:ae:07:16:a5:d7:08:4c:a5:2e:03:00:86:2f:46:c9:
        ae:a1:93:1f:75:45:02:42:71:cf:50:8f:41:97:3a:6b:76:37:
        dc:70:b8:b3:52:2b:a5:d0:e6:aa:a1:72:a5:8b:1b:42:d8:fe:
        e3:54:5b:0f:01:26:66:e4:db:e4:83:42:72:73:0f:5d:fd:15:
        83:b4:10:d6:8a:e5:aa:cc:23:48:3f:50:f3:ec:c2:93:ea:2e:
        2e:3f:58:b5:9f:b6:ee:6d:39:d9:ce:e5:0d:70:7b:71:7e:76:
        f0:ed:37:8a:c8:a4:54:72:e6:13:67:3f:d3:68:02:9c:6a:b0:
        56:42:d6:19:d0:ed:2d:db:dd:35:0f:4f:b5:c7:af:36:24:5f:
        b3:f1:a8:75:13:72:01:b2:1a:c0:2d:88:d0:c3:f0:f0:9e:ff:
        2f:8b:3b:e4:c5:f6:31:2b:11:aa:85:d3:26:a5:6c:60:ad:44:
        d8:e4:1e:36:14:df:48:00:65:78:6d:58:25:5b:83:bc:27:a4:
        d7:34:ab:47:0a:a9:ca:83:a7:84:ca:bb:e5:d0:48:09:74:2d:
        d5:93:f0:91:9f:86:61:32:f1:6e:2c:2b:04:0c:5c:1c:35:35:
        37:bc:f6:6e:ef:3d:1b:b8:2b:ec:c8:93:a5:d4:92:52:de:e9:
        7d:78:cb:79:35:70:76:d3:fd:00:b6:79:b9:08:99:28:3c:52:
        d6:76:9f:73:b8:44:f3:f7:dc:55:e7:1f:95:b9:2f:e6:73:4d:
        e4:01:72:e5:35:d2:b7:7e
-----BEGIN CERTIFICATE-----
MIIHIjCCBQqgAwIBAgIBATANBgkqhkiG9w0BAQsFADCBuDELMAkGA1UEBhMCVVMx
FzAVBgNVBAgMDmdvLWNlcnQgcmVnaW9uMRUwEwYDVQQHDAxnby1jZXJ0IGNpdHkx
EDAOBgNVBAoMB2dvLWNlcnQxHjAcBgNVBAsMFWdvLWNlcnQgQ0EgZGVwYXJ0bWVu
dDEaMBgGA1UEAwwRZ28tY2VydC5sb2NhbGhvc3QxKzApBgkqhkiG9w0BCQEWHHJv
b3RfZW1haWxAZ28tY2VydC5sb2NhbGhvc3QwHhcNMDAwMTAxMDAwMDAwWhcNMDAw
MjAxMDAwMDAwWjCBgTELMAkGA1UEBhMCVVMxFzAVBgNVBAgMDmdvLWNlcnQgcmVn
aW9uMRswGQYDVQQKDBJnby1jZXJ0IGNlcnQgcGxhY2UxIDAeBgNVBAsMF2dvLWNl
cnQgY2VydCBkZXBhcnRtZW50MRowGAYDVQQDDBFnby1jZXJ0LmxvY2FsaG9zdDCC
AiIwDQYJKoZIhvcNAQEBBQADggIPADCCAgoCggIBALOLr51azGJiaWMRYXVHoFZ2
d4dgYnLF6Ed6ZiDSfDnsXjn0ppJSy6c25fkglfyRpOkZxsxiVGqYStNY6CU2cTPU
Lc8PeRnH7oDGAq2ujlTDBgDHlyQ9iNzGOQZXefMDwgOxNlzj4HULA+mJ+jQwILFg
5UrYoHYPLUN6DQe/5ZIateNq40BHWo3u4/W+gje02Xx8GjCAh02QEXiMPFVbnAWz
kNTqk7TddQnYhFm/ZcnZUQpHb/WynJyEuUJfsPaMxFVlU9GLRTe0knF6DdxU2OHC
WGOOA6ftyNiNscDMmIAvWth24SmbFkMPtxKDDjMRmqvuW2v9kZnWzGniO66/xmbN
xWo8GqbAr4CmTP0AT6paAjQtc4o9jSKdm5jZ6+rH1JRwNera/4EgtbU/2pgGr/bm
uKCjDG3FjRoZvK1PbgbJE+ts1UCrUyIUlnICMuulCvpAigA0Pj9tfXG67NmYh7bt
HwTRNVZL0vGF3Vnv8P0ba+TYpvrRvRz9xMLIGcjdPRkwUAKHPlpTShFBf1mKHAAn
yvFKPKGhm7PEbiPLIBm8ucIpGatkqnsMDVe2LmEPZvb46kX+hvN6Z9wx4I3emyae
d7lqbolOEgi76HQbhdfNod8oqyeDSNICpkbU67d8xmsiwaU8mUGcj61sGIBa7xtM
U3LusbkOravXWxzvBPj7AgMBAAGjggFqMIIBZjALBgNVHQ8EBAMCB4AwCQYDVR0T
BAIwADBIBgNVHREEQTA/ghFnby1jZXJ0LmxvY2FsaG9zdIIVd3d3LmdvLWNlcnQu
bG9jYWxob3N0ghMqLmdvLWNlcnQubG9jYWxob3N0MB0GA1UdDgQWBBS6+/rj+iaX
XXsIFfWBkRFeqnmLDTCB4gYDVR0jBIHaMIHXoYG+pIG7MIG4MQswCQYDVQQGEwJV
UzEXMBUGA1UECAwOZ28tY2VydCByZWdpb24xFTATBgNVBAcMDGdvLWNlcnQgY2l0
eTEQMA4GA1UECgwHZ28tY2VydDEeMBwGA1UECwwVZ28tY2VydCBDQSBkZXBhcnRt
ZW50MRowGAYDVQQDDBFnby1jZXJ0LmxvY2FsaG9zdDErMCkGCSqGSIb3DQEJARYc
cm9vdF9lbWFpbEBnby1jZXJ0LmxvY2FsaG9zdIIUWuWY93p2NZvED3uFmGh/RkT1
uH4wDQYJKoZIhvcNAQELBQADggIBAAwtwFTRvrfZkGH38Fcv9dFhUYvjnyzW0lzd
8i0hffg1y4aabueRHFAuCyv7af6C2fkqBm3NgHwNbcrJmL8KBC2J0J14sk8/lbD4
ivtKgDsxGxMnCJ7XQbHyJcB3qzT/42l1mlX70DelIHLzphlwpn0gBPQHP8a+GqHZ
2NBa6sp1kEnbYdVKDZ0YY346kV/hTbwEwgZA3H5YUh74k4cHZdtZZlGGowgjG0RP
m8zJiyvhHaCyptfcPTGYuayacVj1m9sTTr6GxQqZgeaYnxTmD/f5Lf2Ix6Dtjhpb
oq4HFqXXCEylLgMAhi9Gya6hkx91RQJCcc9Qj0GXOmt2N9xwuLNSK6XQ5qqhcqWL
G0LY/uNUWw8BJmbk2+SDQnJzD139FYO0ENaK5arMI0g/UPPswpPqLi4/WLWftu5t
OdnO5Q1we3F+dvDtN4rIpFRy5hNnP9NoApxqsFZC1hnQ7S3b3TUPT7XHrzYkX7Px
qHUTcgGyGsAtiNDD8PCe/y+LO+TF9jErEaqF0yalbGCtRNjkHjYU30gAZXhtWCVb
g7wnpNc0q0cKqcqDp4TKu+XQSAl0LdWT8JGfhmEy8W4sKwQMXBw1NTe89m7vPRu4
K+zIk6XUklLe6X14y3k1cHbT/QC2ebkImSg8UtZ2n3O4RPP33FXnH5W5L+ZzTeQB
cuU10rd+
-----END CERTIFICATE-----
