-----BEGIN CERTIFICATE-----
MIIF+TCCA+ECFFrlmPd6djWbxA97hZhof0ZE9bh+MA0GCSqGSIb3DQEBCwUAMIG4
MQswCQYDVQQGEwJVUzEXMBUGA1UECAwOZ28tY2VydCByZWdpb24xFTATBgNVBAcM
DGdvLWNlcnQgY2l0eTEQMA4GA1UECgwHZ28tY2VydDEeMBwGA1UECwwVZ28tY2Vy
dCBDQSBkZXBhcnRtZW50MRowGAYDVQQDDBFnby1jZXJ0LmxvY2FsaG9zdDErMCkG
CSqGSIb3DQEJARYccm9vdF9lbWFpbEBnby1jZXJ0LmxvY2FsaG9zdDAeFw0yNDA1
MTYxMjI1MjdaFw0zNDA1MTQxMjI1MjdaMIG4MQswCQYDVQQGEwJVUzEXMBUGA1UE
CAwOZ28tY2VydCByZWdpb24xFTATBgNVBAcMDGdvLWNlcnQgY2l0eTEQMA4GA1UE
CgwHZ28tY2VydDEeMBwGA1UECwwVZ28tY2VydCBDQSBkZXBhcnRtZW50MRowGAYD
VQQDDBFnby1jZXJ0LmxvY2FsaG9zdDErMCkGCSqGSIb3DQEJARYccm9vdF9lbWFp
bEBnby1jZXJ0LmxvY2FsaG9zdDCCAiIwDQYJKoZIhvcNAQEBBQADggIPADCCAgoC
ggIBAPFAy7S3AB/0D4l8XkmNLSu55oVnjgMKSaNp1rKd6tWbi3ZRBhvANoEUQD00
qMVJKvZK6uqCpKXk5mM+FoCuBcwcIz7mq7fO1uuxM7Lk0iqQI9gKkrXQV0xiaKNb
cNBG/vIlqgr2w5wkdJhUDMIqdUjTbdKiaa3/YC3QCk3yggtnRKpSFX6YgZByWXAe
tz2saxMx7nhfxmLjMuM2IAaRBKr4oyLgXIS8q1W+Dm4fIKJQ2A1orFBfCgTYkgVO
n0xxTjqvFIGJJCecEGNiLUbtxJoOw0CE7eJEqskOtgwPXvVvljqudujmZbO4Nhdp
1iV3q/9RZJRRuqhn+t/tZotgWnjqAxSZxZzcAcRiGjfoTu5KN9JJKng6ZbrBGkZe
scek1fQAK3RpTfSes+NvCjo7hLOvj/pfJ2Wpe69nlx6cgdTjd0g+qa5HvvOj0qFr
QwC3CUHtMmQbv4Unu0Fbj1k0o+IBVKhAlr7fcHCdvJG7LwibjBkzqq+qBQpEzsTB
PN+Q4qRQ9L5ydtPd3FzzH7YBjRb8L+qCTjKRMyWpJpjNuA39TC0VLcJ2FD2HSvOD
+cljhMp9kXayEzpCq3sxFKZgy6nqX4tYyrnLhz9PnIV9uQQTcT1chwDYE4ShLCA+
Y6tLPfdHecOia1H+rIA9aAsO0g9N/RyoPTv0ack4d7vGKNLjAgMBAAEwDQYJKoZI
hvcNAQELBQADggIBAAsvCNTnb9b/qktGE/5YU0GLbjBZwLMXCbHdeCw5b2M/QElj
RT9/SYJWpAeronBF8oiRIk3BzmvTTGOGaPpLQM7gYbonT5DtLgRiwGXtUZJZd2bS
kdkBompe+hSIjMrnBkTH6sRLVd7QDJ9wv21/YvwZ5th6VMd09/0ijSG4D2Sg8og+
kOog3zdTMIf84a8/6G18SaFbOSRvmFEEtEsUuyVBEBWW45i40h+CyPHQdY+3YcRA
WZc5S5u+J0NJFglYwUG9ltPSqgeQ/bHIkzSajY8Iy3m5JzTjHxPzFFlVAwuiT2XV
hWWOK3ggADqlJ979lcoFMSwvH8RLkE6BYWj1Yd9+ROd5xOkVmcYwjfJNxlEJ99uy
tULKD79nSlpAGejYF16kGQu9SvPGhj0GGr1u9eTXaWze3t6DIXYs8089IhG8r8cg
Jo1v0CS6JFY2avjkLJ9KeD3Sk+TUF8Xy3tXMy/a24eE+85kml3rAApUNcO3vWG+B
0Ae7cfT0l/Nkgvhs+n3T6b9rwwhvSNolatoO5k9nNTb5ifxSDzSVIF7B/hmxWZvQ
izqksUhhpyEzmWay5LkAvF/JAhMjIfNmjlTF1c1tWdR6ZjpcbjRUbJJX1tcpUGGe
nvMGvMblaOqGceTeijA7bzM2M9CnrSXXxjjXTGyhmw1dy3/6r9OCQ+b664v/
-----END CERTIFICATE-----
Certificate:
    Data:
        Version: 3 (0x2)
        Serial Number: 2 (0x2)
        Signature Algorithm: sha256WithRSAEncryption
        Issuer: C=US, ST=go-cert region, L=go-cert city, O=go-cert, OU=go-cert CA department, CN=go-cert.localhost/emailAddress=root_email@go-cert.localhost
        Validity
            Not Before: Jan  1 00:00:00 2050 GMT
            Not After : Feb  1 00:00:00 2050 GMT
        Subject: C=US, ST=go-cert region, O=go-cert cert place, OU=go-cert cert department, CN=go-cert.localhost
        Subject Public Key Info:
            Public Key Algorithm: rsaEncryption
                Public-Key: (4096 bit)
                Modulus:
                    00:b3:8b:af:9d:5a:cc:62:62:69:63:11:61:75:47:
                    a0:56:76:77:87:60:62:72:c5:e8:47:7a:66:20:d2:
                    7c:39:ec:5e:39:f4:a6:92:52:cb:a7:36:e5:f9:20:
                    95:fc:91:a4:e9:19:c6:cc:62:54:6a:98:4a:d3:58:
                    e8:25:36:71:33:d4:2d:cf:0f:79:19:c7:ee:80:c6:
                    02:ad:ae:8e:54:c3:06:00:c7:97:24:3d:88:dc:c6:
                    39:06:57:79:f3:03:c2:03:b1:36:5c:e3:e0:75:0b:
                    03:e9:89:fa:34:30:20:b1:60:e5:4a:d8:a0:76:0f:
                    2d:43:7a:0d:07:bf:e5:92:1a:b5:e3:6a:e3:40:47:
                    5a:8d:ee:e3:f5:be:82:37:b4:d9:7c:7c:1a:30:80:
                    87:4d:90:11:78:8c:3c:55:5b:9c:05:b3:90:d4:ea:
                    93:b4:dd:75:09:d8:84:59:bf:65:c9:d9:51:0a:47:
                    6f:f5:b2:9c:9c:84:b9:42:5f:b0:f6:8c:c4:55:65:
                    53:d1:8b:45:37:b4:92:71:7a:0d:dc:54:d8:e1:c2:
                    58:63:8e:03:a7:ed:c8:d8:8d:b1:c0:cc:98:80:2f:
                    5a:d8:76:e1:29:9b:16:43:0f:b7:12:83:0e:33:11:
                    9a:ab:ee:5b:6b:fd:91:99:d6:cc:69:e2:3b:ae:bf:
                    c6:66:cd:c5:6a:3c:1a:a6:c0:af:80:a6:4c:fd:00:
                    4f:aa:5a:02:34:2d:73:8a:3d:8d:22:9d:9b:98:d9:
                    eb:ea:c7:d4:94:70:35:ea:da:ff:81:20:b5:b5:3f:
                    da:98:06:af:f6:e6:b8:a0:a3:0c:6d:c5:8d:1a:19:
                    bc:ad:4f:6e:06:c9:13:eb:6c:d5:40:ab:53:22:14:
                    96:72:02:32:eb:a5:0a:fa:40:8a:00:34:3e:3f:6d:
                    7d:71:ba:ec:d9:98:87:b6:ed:1f:04:d1:35:56:4b:
                    d2:f1:85:dd:59:ef:f0:fd:1b:6b:e4:d8:a6:fa:d1:
                    bd:1c:fd:c4:c2:c8:19:c8:dd:3d:19:30:50:02:87:
                    3e:5a:53:4a:11:41:7f:59:8a:1c:00:27:ca:f1:4a:
                    3c:a1:a1:9b:b3:c4:6e:23:cb:20:19:bc:b9:c2:29:
                    19:ab:64:aa:7b:0c:0d:57:b6:2e:61:0f:66:f6:f8:
                    ea:45:fe:86:f3:7a:67:dc:31:e0:8d:de:9b:26:9e:
                    77:b9:6a:6e:89:4e:12:08:bb:e8:74:1b:85:d7:cd:
                    a1:df:28:ab:27:83:48:d2:02:a6:46:d4:eb:b7:7c:
                    c6:6b:22:c1:a5:3c:99:41:9c:8f:ad:6c:18:80:5a:
                    ef:1b:4c:53:72:ee:b1:b9:0e:ad:ab:d7:5b:1c:ef:
                    04:f8:fb
                Exponent: 65537 (0x10001)
        X509v3 extensions:
            X509v3 Key Usage: 
                Digital Signature
            X509v3 Basic Constraints: 
                CA:FALSE
            X509v3 Subject Alternative Name: 
                DNS:go-cert.localhost, DNS:www.go-cert.localhost, DNS:*.go-cert.localhost
            X509v3 Subject Key Identifier: 
                BA:FB:FA:E3:FA:26:97:5D:7B:08:15:F5:81:91:11:5E:AA:79:8B:0D
            X509v3 Authority Key Identifier: 
                DirName:/C=US/ST=go-cert region/L=go-cert city/O=go-cert/OU=go-cert CA department/CN=go-cert.localhost/emailAddress=root_email@go-cert.localhost
                serial:5A:E5:98:F7:7A:76:35:9B:C4:0F:7B:85:98:68:7F:46:44:F5:B8:7E
    Signature Algorithm: sha256WithRSAEncryption
    Signature Value:
        34:1a:03:52:ac:25:5d:1c:a0:96:a7:18:d0:94:77:56:9b:47:
        fb:d6:e5:7e:cf:28:bb:33:37:b3:57:a6:ac:1d:7b:f9:db:84:
        84:bd:2e:ae:8f:5e:18:5c:28:c9:44:01:5e:22:e0:fe:61:d3:
        82:23:17:ae:42:11:82:a9:d1:38:91:8c:f2:75:b0:f5:58:f4:
        51:7b:89:38:de:02:d6:f4:74:ed:3b:00:0a:bb:73:84:0a:65:
        2c:b3:77:b2:5e:2a:d8:10:69:2e:0c:45:b0:22:09:a3:bd:76:
        8c:14:71:12:9d:40:23:a6:2a:81:06:b7:89:e3:29:06:eb:93:
        55:25:37:d4:56:ba:9f:a5:7a:ac:a5:bf:7d:9f:48:96:49:77:
        fc:3c:fe:32:99:7c:ba:ca:1f:99:18:c0:c7:04:ca:83:36:1e:
        4b:48:82:19:e0:0f:b8:c2:07:8a:3d:a0:0e:04:c4:2d:3b:da:
        26:91:6f:dc:b6:5c:75:ce:ce:09:09:5f:48:df:e0:5a:7f:05:
        9e:75:28:fc:54:9f:d0:ed:89:93:f2:dd:b1:7b:06:42:f6:30:
        16:ac:ea:55:c1:43:cf:20:6d:26:1a:dc:71:22:66:de:68:3d:
        0f:b3:f5:8d:a5:cc:37:30:8d:9f:55:87:59:c8:68:9d:14:01:
        44:09:e5:8f:20:58:38:71:93:bc:a2:ac:3f:c3:f6:ff:c1:75:
        2a:db:de:98:ff:1b:41:11:7b:91:ad:2f:7c:f2:1e:3f:34:1c:
        99:ac:1e:f3:9b:d4:f6:4d:c1:7a:e5:97:45:75:4d:0b:9f:86:
        3e:d5:0d:39:e3:b8:5c:15:ea:fd:0c:15:1e:7a:10:e1:af:04:
        fe:0f:d4:f6:60:55:4c:6a:c6:25:c7:ae:59:75:8e:f6:7c:b8:
        c8:5f:ec:d9:de:cf:12:7d:ef:4f:40:d9:8c:9f:25:4b:70:c3:
        ba:56:8c:68:e8:31:ef:68:80:f9:57:47:f8:9b:0f:44:04:61:
        89:26:30:95:6d:e1:63:8a:3b:83:f2:20:58:9c:a2:59:2c:af:
        32:67:be:39:7c:ac:4c:c4:a2:d8:96:85:83:23:42:9c:fa:a6:
        fc:ce:4e:39:22:61:28:36:89:c1:d6:d0:44:80:06:6c:96:91:
        36:d1:b0:6b:b3:fd:22:2d:09:ec:1d:08:aa:5a:a4:bb:a6:5c:
        43:e9:54:de:e6:c8:0b:db:7f:30:14:c8:ab:5f:0c:9d:a8:6c:
        4f:78:d5:bf:6d:2a:81:54:b9:ca:f8:49:1d:a7:14:4d:49:ba:
        d0:cc:1a:63:43:9e:44:b9:59:3d:8b:db:14:07:22:5d:7a:90:
        43:c0:09:cf:30:04:f4:b3
-----BEGIN CERTIFICATE-----
MIIHJjCCBQ6gAwIBAgIBAjANBgkqhkiG9w0BAQsFADCBuDELMAkGA1UEBhMCVVMx
FzAVBgNVBAgMDmdvLWNlcnQgcmVnaW9uMRUwEwYDVQQHDAxnby1jZXJ0IGNpdHkx
EDAOBgNVBAoMB2dvLWNlcnQxHjAcBgNVBAsMFWdvLWNlcnQgQ0EgZGVwYXJ0bWVu
dDEaMBgGA1UEAwwRZ28tY2VydC5sb2NhbGhvc3QxKzApBgkqhkiG9w0BCQEWHHJv
b3RfZW1haWxAZ28tY2VydC5sb2NhbGhvc3QwIhgPMjA1MDAxMDEwMDAwMDBaGA8y
MDUwMDIwMTAwMDAwMFowgYExCzAJBgNVBAYTAlVTMRcwFQYDVQQIDA5nby1jZXJ0
IHJlZ2lvbjEbMBkGA1UECgwSZ28tY2VydCBjZXJ0IHBsYWNlMSAwHgYDVQQLDBdn
by1jZXJ0IGNlcnQgZGVwYXJ0bWVudDEaMBgGA1UEAwwRZ28tY2VydC5sb2NhbGhv
c3QwggIiMA0GCSqGSIb3DQEBAQUAA4ICDwAwggIKAoICAQCzi6+dWsxiYmljEWF1
R6BWdneHYGJyxehHemYg0nw57F459KaSUsunNuX5IJX8kaTpGcbMYlRqmErTWOgl
NnEz1C3PD3kZx+6AxgKtro5UwwYAx5ckPYjcxjkGV3nzA8IDsTZc4+B1CwPpifo0
MCCxYOVK2KB2Dy1Deg0Hv+WSGrXjauNAR1qN7uP1voI3tNl8fBowgIdNkBF4jDxV
W5wFs5DU6pO03XUJ2IRZv2XJ2VEKR2/1spychLlCX7D2jMRVZVPRi0U3tJJxeg3c
VNjhwlhjjgOn7cjYjbHAzJiAL1rYduEpmxZDD7cSgw4zEZqr7ltr/ZGZ1sxp4juu
v8ZmzcVqPBqmwK+Apkz9AE+qWgI0LXOKPY0inZuY2evqx9SUcDXq2v+BILW1P9qY
Bq/25rigowxtxY0aGbytT24GyRPrbNVAq1MiFJZyAjLrpQr6QIoAND4/bX1xuuzZ
mIe27R8E0TVWS9Lxhd1Z7/D9G2vk2Kb60b0c/cTCyBnI3T0ZMFAChz5aU0oRQX9Z
ihwAJ8rxSjyhoZuzxG4jyyAZvLnCKRmrZKp7DA1Xti5hD2b2+OpF/obzemfcMeCN
3psmnne5am6JThIIu+h0G4XXzaHfKKsng0jSAqZG1Ou3fMZrIsGlPJlBnI+tbBiA
Wu8bTFNy7rG5Dq2r11sc7wT4+wIDAQABo4IBajCCAWYwCwYDVR0PBAQDAgeAMAkG
A1UdEwQCMAAwSAYDVR0RBEEwP4IRZ28tY2VydC5sb2NhbGhvc3SCFXd3dy5nby1j
ZXJ0LmxvY2FsaG9zdIITKi5nby1jZXJ0LmxvY2FsaG9zdDAdBgNVHQ4EFgQUuvv6
4/oml117CBX1gZERXqp5iw0wgeIGA1UdIwSB2jCB16GBvqSBuzCBuDELMAkGA1UE
BhMCVVMxFzAVBgNVBAgMDmdvLWNlcnQgcmVnaW9uMRUwEwYDVQQHDAxnby1jZXJ0
IGNpdHkxEDAOBgNVBAoMB2dvLWNlcnQxHjAcBgNVBAsMFWdvLWNlcnQgQ0EgZGVw
YXJ0bWVudDEaMBgGA1UEAwwRZ28tY2VydC5sb2NhbGhvc3QxKzApBgkqhkiG9w0B
CQEWHHJvb3RfZW1haWxAZ28tY2VydC5sb2NhbGhvc3SCFFrlmPd6djWbxA97hZho
f0ZE9bh+MA0GCSqGSIb3DQEBCwUAA4ICAQA0GgNSrCVdHKCWpxjQlHdWm0f71uV+
zyi7MzezV6asHXv524SEvS6uj14YXCjJRAFeIuD+YdOCIxeuQhGCqdE4kYzydbD1
WPRRe4k43gLW9HTtOwAKu3OECmUss3eyXirYEGkuDEWwIgmjvXaMFHESnUAjpiqB
BreJ4ykG65NVJTfUVrqfpXqspb99n0iWSXf8PP4ymXy6yh+ZGMDHBMqDNh5LSIIZ
4A+4wgeKPaAOBMQtO9omkW/ctlx1zs4JCV9I3+BafwWedSj8VJ/Q7YmT8t2xewZC
9jAWrOpVwUPPIG0mGtxxImbeaD0Ps/WNpcw3MI2fVYdZyGidFAFECeWPIFg4cZO8
oqw/w/b/wXUq296Y/xtBEXuRrS988h4/NByZrB7zm9T2TcF65ZdFdU0Ln4Y+1Q05
47hcFer9DBUeehDhrwT+D9T2YFVMasYlx65ZdY72fLjIX+zZ3s8Sfe9PQNmMnyVL
cMO6Voxo6DHvaID5V0f4mw9EBGGJJjCVbeFjijuD8iBYnKJZLK8yZ745fKxMxKLY
loWDI0Kc+qb8zk45ImEoNonB1tBEgAZslpE20bBrs/0iLQnsHQiqWqS7plxD6VTe
5sgL238wFMirXwydqGxPeNW/bSqBVLnK+EkdpxRNSbrQzBpjQ55EuVk9i9sUByJd
epBDwAnPMAT0sw==
-----END CERTIFICATE-----
-----BEGIN PRIVATE KEY-----
MIIJQgIBADANBgkqhkiG9w0BAQEFAASCCSwwggkoAgEAAoICAQCzi6+dWsxiYmlj
EWF1R6BWdneHYGJyxehHemYg0nw57F459KaSUsunNuX5IJX8kaTpGcbMYlRqmErT
WOglNnEz1C3PD3kZx+6AxgKtro5UwwYAx5ckPYjcxjkGV3nzA8IDsTZc4+B1CwPp
ifo0MCCxYOVK2KB2Dy1Deg0Hv+WSGrXjauNAR1qN7uP1voI3tNl8fBowgIdNkBF4
jDxVW5wFs5DU6pO03XUJ2IRZv2XJ2VEKR2/1spychLlCX7D2jMRVZVPRi0U3tJJx
eg3cVNjhwlhjjgOn7cjYjbHAzJiAL1rYduEpmxZDD7cSgw4zEZqr7ltr/ZGZ1sxp
4juuv8ZmzcVqPBqmwK+Apkz9AE+qWgI0LXOKPY0inZuY2evqx9SUcDXq2v+BILW1
P9qYBq/25rigowxtxY0aGbytT24GyRPrbNVAq1MiFJZyAjLrpQr6QIoAND4/bX1x
uuzZmIe27R8E0TVWS9Lxhd1Z7/D9G2vk2Kb60b0c/cTCyBnI3T0ZMFAChz5aU0oR
QX9ZihwAJ8rxSjyhoZuzxG4jyyAZvLnCKRmrZKp7DA1Xti5hD2b2+OpF/obzemfc
MeCN3psmnne5am6JThIIu+h0G4XXzaHfKKsng0jSAqZG1Ou3fMZrIsGlPJlBnI+t
bBiAWu8bTFNy7rG5Dq2r11sc7wT4+wIDAQABAoICAFH3ug9k9f0Of51mQG956TW/
9Na9hoRuXJpRQ1HFtkf9ZJEh42/W07m9ouUG3uKFHVv71BnX5EEb0MFHDAh9H9Yx
Dk7C+h7uezCX9X4UPE9vD40IkbROUW61IjCGfBqZQxhLbY2fzQeyJTGXt73eoPZJ
zbRLTIpJaHkvPcalcWmvvw0ZbbEZQjqc7r5woGNNMaMWxyAQdXTQCmHV5+9yGLsz
nLHPe+ps1fNOQTH14sLxbwF51p+9UKlWIHuwUwpj/ngb/9WgttN1IQwkVDKcG72J
a6/blEi0kmZm3dkuroqK0/cR4r6LWnD4OjR911wyM8I9Wchl5XRtrznBukyPqcPe
dy6HzV8FWAhk0vcv1Gls2AVu+tE4I/E2XQ4kxguW1umL1G52odUHE+capfFtCHg4
pNbmprSuqPr4ozhUUBdgd07TxKIEtEtY5Ed4UDs47QdwRjtEf3ATowhh1zbMSpRL
HSm45pCqBHfVaKl+DeJvdJTCl9pj+KfKLi0LOmwG5l0vH2N6tqWGuKwvoRovs+pj
X+5wc1v15IGDi6OuWMy7JVqzDmn4eedASwyJguBZZdjGD3CHr0TITonTU8kgDZ37
vCfs9T2zysFJcFVq1jtgt9+KPlbhbbUua3wRU8V4hKyEKe+/pu+vL8vhOba2+cr2
vjGbIAo11fawA72vdnlFAoIBAQDUiXhKV6jbS4NmGyT9QzfVtF+fS5WR9292fX7m
CLOcqU1cum733Q1kE4qsWN11+7m5iJwIZIzRBK8gRZCeHD5N9NcLoCOejGW9ygdX
+Zdm/zfrawfheqpNL1Y5T0bU5EeeyBNwxfhWgKn8DbwvRVo+dpxjMlTf7rztsvet
BmA3CHSp1p9ayNbG6Li65T1dohLLCi5aPDtiyvfHpyfrbB6J5S9YTiGvOQcEh0Aq
a5uYiDQpwlCecfhwHBew+9CK8f9HgozowaE8wUXPRTwBiXHbMKNWwfOz0bO9lejX
ysXAAG1NSmqBnHtcYfo4IHEDjCgxvx0C559KPVHX/r3rP4PFAoIBAQDYQxXZ2zL0
wMEqWO/5vijLKdX789rScjFFGufRjK6/gm3BzMZW2xzV7BQK8qq7Zp5Oe95/rl/X
hpGO3XVdkjb0fI8ScEcdMXMIC5j2VbBH87RJ/ffRBwbgj05lXKAlbekBOfW37eE7
hTdhfVBn+hslArKNEweU+FDio+Gw4Bpi6DROKzqkQkbXtDFh5+ay1boU+/1ek4V1
+mMc3cjSpXTOKjOxGOmJMOyMIGxcE8z2KiuezGJN7nb6O6ncP4OAHxfiTea3VsyE
HrGP3oUPQ3yBkeDEZbZmBn2mY+2Ru0I9tyrfDJfUp5op0RpuIkTE/hjcyNe1bzIb
Vci4a9SmMJW/AoIBAQC6jqht6SAozdHa8Hy5aiU6iodc1gXGCIFoaqPW21B9dQaZ
HHSHURuN+rFAswhBpeHSf50mqMwKNKhcFXPptTTjTMTuSXS6mNY9j3Z+vHEvUVsO
Y/aY7wlJkwGGcJXmDTLopwqZdMyVcX7D5nKGs8ORDKAdWnKx1Wc05mENGYmfBOcS
pXdfQudz1ZdBRjNlWvxQCPHC9xfRkgOI1qrttQvhUrEKPBrJKa+FRAsIsUf0zamr
9gq56aR/E8mf6omVTPIdHPT+4efb4nKai1UurCyqj7jwUHLQJoQ1J78om66U6EsJ
CwcOGgMWhlISrjdFO+OUNwMKJ7Hkgoqyo8KlGi1ZAoIBAEkvGpvo4+uTt0q/YiZf
xapK9BEZSrngzu+V1VFCjHheiQoGZDBMYgu6omW6DTDx3yysGnWW6vQio+t24hrS
OiquZDRXLpmgfE8Crbbe9JLE1AQeH9jqydcAaAVBPSitcyZpGNAvfgMIZ99j6uvk
5X621PmMsQompiisUNnsXMGP1vOFCYlArHyei/+X3Kg0T45+YBW7UnTEUPoZy7YN
K+QAwBF0XsOAfOxGpKTcRoYfazeH7tR0mGrB+g+Apt2aqBh7SFJO21LymCAZq2mo
6t9mIGwWB42rMKY4NtMUTaxY6fcladQbC76O9qTCkAch/gPpK6ZIhOpfM1fFlebP
lj0CggEAJrPpr1R8sfNdzkxJe/EWtIRReK9zA9Nn9gQHTUu/9I2B5GDG7Nkf7UH0
ZW0pktgVMzg1tF2U4OYWxUoxLoiV0kQfP1IKjMN/cgiKmNW17S8jTX/19k5/HKun
+TROevgLwvYgRnC/ZlKGOMpZmyyRdDrvU6BhnebuHKAY5Y/twC/wTxh4ibsP5Ct6
PaxXSpDhabW/RAJH3wbNoErUiQisILTPF73l2hMuLCZAyU6T0vcQNUd1T8sORqlb
GJtB2Gkxci8VyqOwuAZCaWTol9uovpl5c4y7L7dWvWbJHRZaTglz4n1Tk+WHGV4L
vcDdbs6CSYNyR0dml5Ig6oXrI+zscQ==
-----END PRIVATE KEY-----
